(lp0
(S'cppflags'
p1
ccopy_reg
_reconstructor
p2
(cino.utils
SpaceList
p3
c__builtin__
list
p4
(lp5
S'-mmcu=atmega2560'
p6
aS'-DF_CPU=16000000L'
p7
aS'-DARDUINO=105'
p8
aS'-I/usr/share/arduino/hardware/arduino/cores/arduino'
p9
aS'-ffunction-sections'
p10
aS'-fdata-sections'
p11
aS'-g'
p12
aS'-Os'
p13
aS'-w'
p14
aS'-I/usr/share/arduino/hardware/arduino/variants/mega'
p15
aS'-I/usr/share/arduino/hardware/arduino/cores/arduino'
p16
aS'-I/usr/share/arduino/hardware/arduino/cores/arduino/avr-libc'
p17
atp18
Rp19
tp20
a(S'cc'
p21
S'/usr/share/arduino/hardware/tools/avr/bin/avr-gcc'
p22
tp23
a(S'arduino_libraries_dir'
p24
S'/usr/share/arduino/libraries'
p25
tp26
a(S'avrdude'
p27
S'/usr/share/arduino/hardware/tools/avrdude'
p28
tp29
a(S'ar'
p30
S'/usr/share/arduino/hardware/tools/avr/bin/avr-ar'
p31
tp32
a(S'names'
p33
(dp34
S'cpp'
p35
S'%s.cpp'
p36
sS'obj'
p37
S'%s.o'
p38
sS'lib'
p39
S'lib%s.a'
p40
sS'deps'
p41
S'%s.d'
p42
stp43
a(S'ldflags'
p44
g2
(g3
g4
(lp45
g6
aS'-Wl,-Os'
p46
aS'-Wl,--gc-sections'
p47
atp48
Rp49
tp50
a(S'arduino_lib_version'
p51
g2
(cino.environment
Version
p52
c__builtin__
tuple
p53
(I1
I0
I5
tp54
tp55
Rp56
tp57
a(S'objcopy'
p58
S'/usr/share/arduino/hardware/tools/avr/bin/avr-objcopy'
p59
tp60
a(S'board_models'
p61
cino.environment
BoardModels
p62
((lp63
(lp64
S'uno'
p65
a(dp66
S'_coredir'
p67
S'/usr/share/arduino/hardware/arduino'
p68
sS'bootloader'
p69
(dp70
S'extended_fuses'
p71
S'0x05'
p72
sS'high_fuses'
p73
S'0xde'
p74
sS'low_fuses'
p75
S'0xff'
p76
sS'lock_bits'
p77
S'0x0F'
p78
sS'file'
p79
S'optiboot_atmega328.hex'
p80
sS'path'
p81
S'optiboot'
p82
sS'unlock_bits'
p83
S'0x3F'
p84
ssS'build'
p85
(dp86
S'core'
p87
S'arduino'
p88
sS'mcu'
p89
S'atmega328p'
p90
sS'f_cpu'
p91
S'16000000L'
p92
sS'variant'
p93
S'standard'
p94
ssS'name'
p95
S'Arduino Uno'
p96
sS'upload'
p97
(dp98
S'protocol'
p99
S'arduino'
p100
sS'maximum_size'
p101
S'32256'
p102
sS'speed'
p103
S'115200'
p104
ssaa(lp105
S'atmega328'
p106
a(dp107
g67
S'/usr/share/arduino/hardware/arduino'
p108
sS'bootloader'
p109
(dp110
S'extended_fuses'
p111
S'0x05'
p112
sS'high_fuses'
p113
S'0xDA'
p114
sS'low_fuses'
p115
S'0xFF'
p116
sS'lock_bits'
p117
S'0x0F'
p118
sS'file'
p119
S'ATmegaBOOT_168_atmega328.hex'
p120
sS'path'
p121
S'atmega'
p122
sS'unlock_bits'
p123
S'0x3F'
p124
ssS'build'
p125
(dp126
S'core'
p127
S'arduino'
p128
sS'mcu'
p129
S'atmega328p'
p130
sS'f_cpu'
p131
S'16000000L'
p132
sS'variant'
p133
S'standard'
p134
ssS'name'
p135
S'Arduino Duemilanove w/ ATmega328'
p136
sS'upload'
p137
(dp138
S'protocol'
p139
S'arduino'
p140
sS'maximum_size'
p141
S'30720'
p142
sS'speed'
p143
S'57600'
p144
ssaa(lp145
S'diecimila'
p146
a(dp147
g67
S'/usr/share/arduino/hardware/arduino'
p148
sS'bootloader'
p149
(dp150
S'extended_fuses'
p151
S'0x00'
p152
sS'high_fuses'
p153
S'0xdd'
p154
sS'low_fuses'
p155
S'0xff'
p156
sS'lock_bits'
p157
S'0x0F'
p158
sS'file'
p159
S'ATmegaBOOT_168_diecimila.hex'
p160
sS'path'
p161
S'atmega'
p162
sS'unlock_bits'
p163
S'0x3F'
p164
ssS'build'
p165
(dp166
S'core'
p167
S'arduino'
p168
sS'mcu'
p169
S'atmega168'
p170
sS'f_cpu'
p171
S'16000000L'
p172
sS'variant'
p173
S'standard'
p174
ssS'name'
p175
S'Arduino Diecimila or Duemilanove w/ ATmega168'
p176
sS'upload'
p177
(dp178
S'protocol'
p179
S'arduino'
p180
sS'maximum_size'
p181
S'14336'
p182
sS'speed'
p183
S'19200'
p184
ssaa(lp185
S'nano328'
p186
a(dp187
g67
S'/usr/share/arduino/hardware/arduino'
p188
sS'bootloader'
p189
(dp190
S'extended_fuses'
p191
S'0x05'
p192
sS'high_fuses'
p193
S'0xDA'
p194
sS'low_fuses'
p195
S'0xFF'
p196
sS'lock_bits'
p197
S'0x0F'
p198
sS'file'
p199
S'ATmegaBOOT_168_atmega328.hex'
p200
sS'path'
p201
S'atmega'
p202
sS'unlock_bits'
p203
S'0x3F'
p204
ssS'build'
p205
(dp206
S'core'
p207
S'arduino'
p208
sS'mcu'
p209
S'atmega328p'
p210
sS'f_cpu'
p211
S'16000000L'
p212
sS'variant'
p213
S'eightanaloginputs'
p214
ssS'name'
p215
S'Arduino Nano w/ ATmega328'
p216
sS'upload'
p217
(dp218
S'protocol'
p219
S'arduino'
p220
sS'maximum_size'
p221
S'30720'
p222
sS'speed'
p223
S'57600'
p224
ssaa(lp225
S'nano'
p226
a(dp227
g67
S'/usr/share/arduino/hardware/arduino'
p228
sS'bootloader'
p229
(dp230
S'extended_fuses'
p231
S'0x00'
p232
sS'high_fuses'
p233
S'0xdd'
p234
sS'low_fuses'
p235
S'0xff'
p236
sS'lock_bits'
p237
S'0x0F'
p238
sS'file'
p239
S'ATmegaBOOT_168_diecimila.hex'
p240
sS'path'
p241
S'atmega'
p242
sS'unlock_bits'
p243
S'0x3F'
p244
ssS'build'
p245
(dp246
S'core'
p247
S'arduino'
p248
sS'mcu'
p249
S'atmega168'
p250
sS'f_cpu'
p251
S'16000000L'
p252
sS'variant'
p253
S'eightanaloginputs'
p254
ssS'name'
p255
S'Arduino Nano w/ ATmega168'
p256
sS'upload'
p257
(dp258
S'protocol'
p259
S'arduino'
p260
sS'maximum_size'
p261
S'14336'
p262
sS'speed'
p263
S'19200'
p264
ssaa(lp265
S'mega2560'
p266
a(dp267
g67
S'/usr/share/arduino/hardware/arduino'
p268
sS'bootloader'
p269
(dp270
S'extended_fuses'
p271
S'0xFD'
p272
sS'high_fuses'
p273
S'0xD8'
p274
sS'low_fuses'
p275
S'0xFF'
p276
sS'lock_bits'
p277
S'0x0F'
p278
sS'file'
p279
S'stk500boot_v2_mega2560.hex'
p280
sS'path'
p281
S'stk500v2'
p282
sS'unlock_bits'
p283
S'0x3F'
p284
ssS'build'
p285
(dp286
S'core'
p287
S'arduino'
p288
sS'mcu'
p289
S'atmega2560'
p290
sS'f_cpu'
p291
S'16000000L'
p292
sS'variant'
p293
S'mega'
p294
ssS'name'
p295
S'Arduino Mega 2560 or Mega ADK'
p296
sS'upload'
p297
(dp298
S'protocol'
p299
S'wiring'
p300
sS'maximum_size'
p301
S'258048'
p302
sS'speed'
p303
S'115200'
p304
ssaa(lp305
S'mega'
p306
a(dp307
g67
S'/usr/share/arduino/hardware/arduino'
p308
sS'bootloader'
p309
(dp310
S'extended_fuses'
p311
S'0xF5'
p312
sS'high_fuses'
p313
S'0xDA'
p314
sS'low_fuses'
p315
S'0xFF'
p316
sS'lock_bits'
p317
S'0x0F'
p318
sS'file'
p319
S'ATmegaBOOT_168_atmega1280.hex'
p320
sS'path'
p321
S'atmega'
p322
sS'unlock_bits'
p323
S'0x3F'
p324
ssS'build'
p325
(dp326
S'core'
p327
S'arduino'
p328
sS'mcu'
p329
S'atmega1280'
p330
sS'f_cpu'
p331
S'16000000L'
p332
sS'variant'
p333
S'mega'
p334
ssS'name'
p335
S'Arduino Mega (ATmega1280)'
p336
sS'upload'
p337
(dp338
S'protocol'
p339
S'arduino'
p340
sS'maximum_size'
p341
S'126976'
p342
sS'speed'
p343
S'57600'
p344
ssaa(lp345
S'leonardo'
p346
a(dp347
g67
S'/usr/share/arduino/hardware/arduino'
p348
sS'bootloader'
p349
(dp350
S'extended_fuses'
p351
S'0xcb'
p352
sS'high_fuses'
p353
S'0xd8'
p354
sS'low_fuses'
p355
S'0xff'
p356
sS'lock_bits'
p357
S'0x2F'
p358
sS'file'
p359
S'Caterina-Leonardo.hex'
p360
sS'path'
p361
S'caterina'
p362
sS'unlock_bits'
p363
S'0x3F'
p364
ssS'build'
p365
(dp366
S'core'
p367
S'arduino'
p368
sS'f_cpu'
p369
S'16000000L'
p370
sS'vid'
p371
S'0x2341'
p372
sS'pid'
p373
S'0x8036'
p374
sS'variant'
p375
S'leonardo'
p376
sS'mcu'
p377
S'atmega32u4'
p378
ssS'name'
p379
S'Arduino Leonardo'
p380
sS'upload'
p381
(dp382
S'protocol'
p383
S'avr109'
p384
sS'maximum_size'
p385
S'28672'
p386
sS'speed'
p387
S'57600'
p388
sS'disable_flushing'
p389
S'true'
p390
ssaa(lp391
S'esplora'
p392
a(dp393
g67
S'/usr/share/arduino/hardware/arduino'
p394
sS'bootloader'
p395
(dp396
S'extended_fuses'
p397
S'0xcb'
p398
sS'high_fuses'
p399
S'0xd8'
p400
sS'low_fuses'
p401
S'0xff'
p402
sS'lock_bits'
p403
S'0x2F'
p404
sS'file'
p405
S'Caterina-Esplora.hex'
p406
sS'path'
p407
S'caterina'
p408
sS'unlock_bits'
p409
S'0x3F'
p410
ssS'build'
p411
(dp412
S'core'
p413
S'arduino'
p414
sS'f_cpu'
p415
S'16000000L'
p416
sS'vid'
p417
S'0x2341'
p418
sS'pid'
p419
S'0x803C'
p420
sS'variant'
p421
S'leonardo'
p422
sS'mcu'
p423
S'atmega32u4'
p424
ssS'name'
p425
S'Arduino Esplora'
p426
sS'upload'
p427
(dp428
S'protocol'
p429
S'avr109'
p430
sS'maximum_size'
p431
S'28672'
p432
sS'speed'
p433
S'57600'
p434
sS'disable_flushing'
p435
S'true'
p436
ssaa(lp437
S'micro'
p438
a(dp439
g67
S'/usr/share/arduino/hardware/arduino'
p440
sS'bootloader'
p441
(dp442
S'extended_fuses'
p443
S'0xcb'
p444
sS'high_fuses'
p445
S'0xd8'
p446
sS'low_fuses'
p447
S'0xff'
p448
sS'lock_bits'
p449
S'0x2F'
p450
sS'file'
p451
S'Caterina-Micro.hex'
p452
sS'path'
p453
S'caterina'
p454
sS'unlock_bits'
p455
S'0x3F'
p456
ssS'build'
p457
(dp458
S'core'
p459
S'arduino'
p460
sS'f_cpu'
p461
S'16000000L'
p462
sS'vid'
p463
S'0x2341'
p464
sS'pid'
p465
S'0x8037'
p466
sS'variant'
p467
S'micro'
p468
sS'mcu'
p469
S'atmega32u4'
p470
ssS'name'
p471
S'Arduino Micro'
p472
sS'upload'
p473
(dp474
S'protocol'
p475
S'avr109'
p476
sS'maximum_size'
p477
S'28672'
p478
sS'speed'
p479
S'57600'
p480
sS'disable_flushing'
p481
S'true'
p482
ssaa(lp483
S'mini328'
p484
a(dp485
g67
S'/usr/share/arduino/hardware/arduino'
p486
sS'bootloader'
p487
(dp488
S'extended_fuses'
p489
S'0x05'
p490
sS'high_fuses'
p491
S'0xd8'
p492
sS'low_fuses'
p493
S'0xff'
p494
sS'lock_bits'
p495
S'0x0F'
p496
sS'file'
p497
S'optiboot_atmega328-Mini.hex'
p498
sS'path'
p499
S'optiboot'
p500
sS'unlock_bits'
p501
S'0x3F'
p502
ssS'build'
p503
(dp504
S'core'
p505
S'arduino'
p506
sS'mcu'
p507
S'atmega328p'
p508
sS'f_cpu'
p509
S'16000000L'
p510
sS'variant'
p511
S'eightanaloginputs'
p512
ssS'name'
p513
S'Arduino Mini w/ ATmega328'
p514
sS'upload'
p515
(dp516
S'protocol'
p517
S'arduino'
p518
sS'maximum_size'
p519
S'28672'
p520
sS'speed'
p521
S'115200'
p522
ssaa(lp523
S'mini'
p524
a(dp525
g67
S'/usr/share/arduino/hardware/arduino'
p526
sS'bootloader'
p527
(dp528
S'extended_fuses'
p529
S'0x00'
p530
sS'high_fuses'
p531
S'0xdd'
p532
sS'low_fuses'
p533
S'0xff'
p534
sS'lock_bits'
p535
S'0x0F'
p536
sS'file'
p537
S'ATmegaBOOT_168_ng.hex'
p538
sS'path'
p539
S'atmega'
p540
sS'unlock_bits'
p541
S'0x3F'
p542
ssS'build'
p543
(dp544
S'core'
p545
S'arduino'
p546
sS'mcu'
p547
S'atmega168'
p548
sS'f_cpu'
p549
S'16000000L'
p550
sS'variant'
p551
S'eightanaloginputs'
p552
ssS'name'
p553
S'Arduino Mini w/ ATmega168'
p554
sS'upload'
p555
(dp556
S'protocol'
p557
S'arduino'
p558
sS'maximum_size'
p559
S'14336'
p560
sS'speed'
p561
S'19200'
p562
ssaa(lp563
S'ethernet'
p564
a(dp565
g67
S'/usr/share/arduino/hardware/arduino'
p566
sS'bootloader'
p567
(dp568
S'extended_fuses'
p569
S'0x05'
p570
sS'high_fuses'
p571
S'0xde'
p572
sS'low_fuses'
p573
S'0xff'
p574
sS'lock_bits'
p575
S'0x0F'
p576
sS'file'
p577
S'optiboot_atmega328.hex'
p578
sS'path'
p579
S'optiboot'
p580
sS'unlock_bits'
p581
S'0x3F'
p582
ssS'build'
p583
(dp584
S'variant'
p585
S'ethernet'
p586
sS'mcu'
p587
S'atmega328p'
p588
sS'f_cpu'
p589
S'16000000L'
p590
sS'core'
p591
S'arduino'
p592
ssS'name'
p593
S'Arduino Ethernet'
p594
sS'upload'
p595
(dp596
S'protocol'
p597
S'arduino'
p598
sS'maximum_size'
p599
S'32256'
p600
sS'speed'
p601
S'115200'
p602
ssaa(lp603
S'fio'
p604
a(dp605
g67
S'/usr/share/arduino/hardware/arduino'
p606
sS'bootloader'
p607
(dp608
S'extended_fuses'
p609
S'0x05'
p610
sS'high_fuses'
p611
S'0xDA'
p612
sS'low_fuses'
p613
S'0xFF'
p614
sS'lock_bits'
p615
S'0x0F'
p616
sS'file'
p617
S'ATmegaBOOT_168_atmega328_pro_8MHz.hex'
p618
sS'path'
p619
S'arduino:atmega'
p620
sS'unlock_bits'
p621
S'0x3F'
p622
ssS'build'
p623
(dp624
S'core'
p625
S'arduino'
p626
sS'mcu'
p627
S'atmega328p'
p628
sS'f_cpu'
p629
S'8000000L'
p630
sS'variant'
p631
S'eightanaloginputs'
p632
ssS'name'
p633
S'Arduino Fio'
p634
sS'upload'
p635
(dp636
S'protocol'
p637
S'arduino'
p638
sS'maximum_size'
p639
S'30720'
p640
sS'speed'
p641
S'57600'
p642
ssaa(lp643
S'bt328'
p644
a(dp645
g67
S'/usr/share/arduino/hardware/arduino'
p646
sS'bootloader'
p647
(dp648
S'extended_fuses'
p649
S'0x05'
p650
sS'high_fuses'
p651
S'0xd8'
p652
sS'low_fuses'
p653
S'0xff'
p654
sS'lock_bits'
p655
S'0x0F'
p656
sS'file'
p657
S'ATmegaBOOT_168_atmega328_bt.hex'
p658
sS'path'
p659
S'bt'
p660
sS'unlock_bits'
p661
S'0x3F'
p662
ssS'build'
p663
(dp664
S'core'
p665
S'arduino'
p666
sS'mcu'
p667
S'atmega328p'
p668
sS'f_cpu'
p669
S'16000000L'
p670
sS'variant'
p671
S'eightanaloginputs'
p672
ssS'name'
p673
S'Arduino BT w/ ATmega328'
p674
sS'upload'
p675
(dp676
S'protocol'
p677
S'arduino'
p678
sS'maximum_size'
p679
S'28672'
p680
sS'speed'
p681
S'19200'
p682
sS'disable_flushing'
p683
S'true'
p684
ssaa(lp685
S'bt'
p686
a(dp687
g67
S'/usr/share/arduino/hardware/arduino'
p688
sS'bootloader'
p689
(dp690
S'extended_fuses'
p691
S'0x00'
p692
sS'high_fuses'
p693
S'0xdd'
p694
sS'low_fuses'
p695
S'0xff'
p696
sS'lock_bits'
p697
S'0x0F'
p698
sS'file'
p699
S'ATmegaBOOT_168.hex'
p700
sS'path'
p701
S'bt'
p702
sS'unlock_bits'
p703
S'0x3F'
p704
ssS'build'
p705
(dp706
S'core'
p707
S'arduino'
p708
sS'mcu'
p709
S'atmega168'
p710
sS'f_cpu'
p711
S'16000000L'
p712
sS'variant'
p713
S'eightanaloginputs'
p714
ssS'name'
p715
S'Arduino BT w/ ATmega168'
p716
sS'upload'
p717
(dp718
S'protocol'
p719
S'arduino'
p720
sS'maximum_size'
p721
S'14336'
p722
sS'speed'
p723
S'19200'
p724
sS'disable_flushing'
p725
S'true'
p726
ssaa(lp727
S'LilyPadUSB'
p728
a(dp729
g67
S'/usr/share/arduino/hardware/arduino'
p730
sS'bootloader'
p731
(dp732
S'extended_fuses'
p733
S'0xce'
p734
sS'high_fuses'
p735
S'0xd8'
p736
sS'low_fuses'
p737
S'0xff'
p738
sS'lock_bits'
p739
S'0x2F'
p740
sS'file'
p741
S'Caterina-LilyPadUSB.hex'
p742
sS'path'
p743
S'caterina-LilyPadUSB'
p744
sS'unlock_bits'
p745
S'0x3F'
p746
ssS'build'
p747
(dp748
S'core'
p749
S'arduino'
p750
sS'f_cpu'
p751
S'8000000L'
p752
sS'vid'
p753
S'0x1B4F'
p754
sS'pid'
p755
S'0x9208'
p756
sS'variant'
p757
S'leonardo'
p758
sS'mcu'
p759
S'atmega32u4'
p760
ssS'name'
p761
S'LilyPad Arduino USB'
p762
sS'upload'
p763
(dp764
S'protocol'
p765
S'avr109'
p766
sS'maximum_size'
p767
S'28672'
p768
sS'speed'
p769
S'57600'
p770
sS'disable_flushing'
p771
S'true'
p772
ssaa(lp773
S'lilypad328'
p774
a(dp775
g67
S'/usr/share/arduino/hardware/arduino'
p776
sS'bootloader'
p777
(dp778
S'extended_fuses'
p779
S'0x05'
p780
sS'high_fuses'
p781
S'0xDA'
p782
sS'low_fuses'
p783
S'0xFF'
p784
sS'lock_bits'
p785
S'0x0F'
p786
sS'file'
p787
S'ATmegaBOOT_168_atmega328_pro_8MHz.hex'
p788
sS'path'
p789
S'atmega'
p790
sS'unlock_bits'
p791
S'0x3F'
p792
ssS'build'
p793
(dp794
S'core'
p795
S'arduino'
p796
sS'mcu'
p797
S'atmega328p'
p798
sS'f_cpu'
p799
S'8000000L'
p800
sS'variant'
p801
S'standard'
p802
ssS'name'
p803
S'LilyPad Arduino w/ ATmega328'
p804
sS'upload'
p805
(dp806
S'protocol'
p807
S'arduino'
p808
sS'maximum_size'
p809
S'30720'
p810
sS'speed'
p811
S'57600'
p812
ssaa(lp813
S'lilypad'
p814
a(dp815
g67
S'/usr/share/arduino/hardware/arduino'
p816
sS'bootloader'
p817
(dp818
S'extended_fuses'
p819
S'0x00'
p820
sS'high_fuses'
p821
S'0xdd'
p822
sS'low_fuses'
p823
S'0xe2'
p824
sS'lock_bits'
p825
S'0x0F'
p826
sS'file'
p827
S'LilyPadBOOT_168.hex'
p828
sS'path'
p829
S'lilypad'
p830
sS'unlock_bits'
p831
S'0x3F'
p832
ssS'build'
p833
(dp834
S'core'
p835
S'arduino'
p836
sS'mcu'
p837
S'atmega168'
p838
sS'f_cpu'
p839
S'8000000L'
p840
sS'variant'
p841
S'standard'
p842
ssS'name'
p843
S'LilyPad Arduino w/ ATmega168'
p844
sS'upload'
p845
(dp846
S'protocol'
p847
S'arduino'
p848
sS'maximum_size'
p849
S'14336'
p850
sS'speed'
p851
S'19200'
p852
ssaa(lp853
S'pro5v328'
p854
a(dp855
g67
S'/usr/share/arduino/hardware/arduino'
p856
sS'bootloader'
p857
(dp858
S'extended_fuses'
p859
S'0x05'
p860
sS'high_fuses'
p861
S'0xDA'
p862
sS'low_fuses'
p863
S'0xFF'
p864
sS'lock_bits'
p865
S'0x0F'
p866
sS'file'
p867
S'ATmegaBOOT_168_atmega328.hex'
p868
sS'path'
p869
S'atmega'
p870
sS'unlock_bits'
p871
S'0x3F'
p872
ssS'build'
p873
(dp874
S'core'
p875
S'arduino'
p876
sS'mcu'
p877
S'atmega328p'
p878
sS'f_cpu'
p879
S'16000000L'
p880
sS'variant'
p881
S'standard'
p882
ssS'name'
p883
S'Arduino Pro or Pro Mini (5V, 16 MHz) w/ ATmega328'
p884
sS'upload'
p885
(dp886
S'protocol'
p887
S'arduino'
p888
sS'maximum_size'
p889
S'30720'
p890
sS'speed'
p891
S'57600'
p892
ssaa(lp893
S'pro5v'
p894
a(dp895
g67
S'/usr/share/arduino/hardware/arduino'
p896
sS'bootloader'
p897
(dp898
S'extended_fuses'
p899
S'0x00'
p900
sS'high_fuses'
p901
S'0xdd'
p902
sS'low_fuses'
p903
S'0xff'
p904
sS'lock_bits'
p905
S'0x0F'
p906
sS'file'
p907
S'ATmegaBOOT_168_diecimila.hex'
p908
sS'path'
p909
S'atmega'
p910
sS'unlock_bits'
p911
S'0x3F'
p912
ssS'build'
p913
(dp914
S'core'
p915
S'arduino'
p916
sS'mcu'
p917
S'atmega168'
p918
sS'f_cpu'
p919
S'16000000L'
p920
sS'variant'
p921
S'standard'
p922
ssS'name'
p923
S'Arduino Pro or Pro Mini (5V, 16 MHz) w/ ATmega168'
p924
sS'upload'
p925
(dp926
S'protocol'
p927
S'arduino'
p928
sS'maximum_size'
p929
S'14336'
p930
sS'speed'
p931
S'19200'
p932
ssaa(lp933
S'pro328'
p934
a(dp935
g67
S'/usr/share/arduino/hardware/arduino'
p936
sS'bootloader'
p937
(dp938
S'extended_fuses'
p939
S'0x05'
p940
sS'high_fuses'
p941
S'0xDA'
p942
sS'low_fuses'
p943
S'0xFF'
p944
sS'lock_bits'
p945
S'0x0F'
p946
sS'file'
p947
S'ATmegaBOOT_168_atmega328_pro_8MHz.hex'
p948
sS'path'
p949
S'atmega'
p950
sS'unlock_bits'
p951
S'0x3F'
p952
ssS'build'
p953
(dp954
S'core'
p955
S'arduino'
p956
sS'mcu'
p957
S'atmega328p'
p958
sS'f_cpu'
p959
S'8000000L'
p960
sS'variant'
p961
S'standard'
p962
ssS'name'
p963
S'Arduino Pro or Pro Mini (3.3V, 8 MHz) w/ ATmega328'
p964
sS'upload'
p965
(dp966
S'protocol'
p967
S'arduino'
p968
sS'maximum_size'
p969
S'30720'
p970
sS'speed'
p971
S'57600'
p972
ssaa(lp973
S'pro'
p974
a(dp975
g67
S'/usr/share/arduino/hardware/arduino'
p976
sS'bootloader'
p977
(dp978
S'extended_fuses'
p979
S'0x00'
p980
sS'high_fuses'
p981
S'0xdd'
p982
sS'low_fuses'
p983
S'0xc6'
p984
sS'lock_bits'
p985
S'0x0F'
p986
sS'file'
p987
S'ATmegaBOOT_168_pro_8MHz.hex'
p988
sS'path'
p989
S'atmega'
p990
sS'unlock_bits'
p991
S'0x3F'
p992
ssS'build'
p993
(dp994
S'core'
p995
S'arduino'
p996
sS'mcu'
p997
S'atmega168'
p998
sS'f_cpu'
p999
S'8000000L'
p1000
sS'variant'
p1001
S'standard'
p1002
ssS'name'
p1003
S'Arduino Pro or Pro Mini (3.3V, 8 MHz) w/ ATmega168'
p1004
sS'upload'
p1005
(dp1006
S'protocol'
p1007
S'arduino'
p1008
sS'maximum_size'
p1009
S'14336'
p1010
sS'speed'
p1011
S'19200'
p1012
ssaa(lp1013
S'atmega168'
p1014
a(dp1015
g67
S'/usr/share/arduino/hardware/arduino'
p1016
sS'bootloader'
p1017
(dp1018
S'extended_fuses'
p1019
S'0x00'
p1020
sS'high_fuses'
p1021
S'0xdd'
p1022
sS'low_fuses'
p1023
S'0xff'
p1024
sS'lock_bits'
p1025
S'0x0F'
p1026
sS'file'
p1027
S'ATmegaBOOT_168_ng.hex'
p1028
sS'path'
p1029
S'atmega'
p1030
sS'unlock_bits'
p1031
S'0x3F'
p1032
ssS'build'
p1033
(dp1034
S'core'
p1035
S'arduino'
p1036
sS'mcu'
p1037
S'atmega168'
p1038
sS'f_cpu'
p1039
S'16000000L'
p1040
sS'variant'
p1041
S'standard'
p1042
ssS'name'
p1043
S'Arduino NG or older w/ ATmega168'
p1044
sS'upload'
p1045
(dp1046
S'protocol'
p1047
S'arduino'
p1048
sS'maximum_size'
p1049
S'14336'
p1050
sS'speed'
p1051
S'19200'
p1052
ssaa(lp1053
S'atmega8'
p1054
a(dp1055
g67
S'/usr/share/arduino/hardware/arduino'
p1056
sS'bootloader'
p1057
(dp1058
S'high_fuses'
p1059
S'0xca'
p1060
sS'low_fuses'
p1061
S'0xdf'
p1062
sS'lock_bits'
p1063
S'0x0F'
p1064
sS'file'
p1065
S'ATmegaBOOT-prod-firmware-2009-11-07.hex'
p1066
sS'path'
p1067
S'atmega8'
p1068
sS'unlock_bits'
p1069
S'0x3F'
p1070
ssS'build'
p1071
(dp1072
S'core'
p1073
S'arduino'
p1074
sS'mcu'
p1075
S'atmega8'
p1076
sS'f_cpu'
p1077
S'16000000L'
p1078
sS'variant'
p1079
S'standard'
p1080
ssS'name'
p1081
S'Arduino NG or older w/ ATmega8'
p1082
sS'upload'
p1083
(dp1084
S'protocol'
p1085
S'arduino'
p1086
sS'maximum_size'
p1087
S'7168'
p1088
sS'speed'
p1089
S'19200'
p1090
ssaa(lp1091
S'robotControl'
p1092
a(dp1093
g67
S'/usr/share/arduino/hardware/arduino'
p1094
sS'bootloader'
p1095
(dp1096
S'extended_fuses'
p1097
S'0xcb'
p1098
sS'high_fuses'
p1099
S'0xd8'
p1100
sS'low_fuses'
p1101
S'0xff'
p1102
sS'lock_bits'
p1103
S'0x2F'
p1104
sS'file'
p1105
S'Caterina-Robot-Control.hex'
p1106
sS'path'
p1107
S'caterina-Arduino_Robot'
p1108
sS'unlock_bits'
p1109
S'0x3F'
p1110
ssS'build'
p1111
(dp1112
S'core'
p1113
S'robot'
p1114
sS'f_cpu'
p1115
S'16000000L'
p1116
sS'vid'
p1117
S'0x2341'
p1118
sS'pid'
p1119
S'0x8038'
p1120
sS'variant'
p1121
S'robot_control'
p1122
sS'mcu'
p1123
S'atmega32u4'
p1124
ssS'name'
p1125
S'Arduino Robot Control'
p1126
sS'upload'
p1127
(dp1128
S'protocol'
p1129
S'avr109'
p1130
sS'maximum_size'
p1131
S'28672'
p1132
sS'speed'
p1133
S'57600'
p1134
sS'disable_flushing'
p1135
S'true'
p1136
ssaa(lp1137
S'robotMotor'
p1138
a(dp1139
g67
S'/usr/share/arduino/hardware/arduino'
p1140
sS'bootloader'
p1141
(dp1142
S'extended_fuses'
p1143
S'0xcb'
p1144
sS'high_fuses'
p1145
S'0xd8'
p1146
sS'low_fuses'
p1147
S'0xff'
p1148
sS'lock_bits'
p1149
S'0x2F'
p1150
sS'file'
p1151
S'Caterina-Robot-Motor.hex'
p1152
sS'path'
p1153
S'caterina-Arduino_Robot'
p1154
sS'unlock_bits'
p1155
S'0x3F'
p1156
ssS'build'
p1157
(dp1158
S'core'
p1159
S'robot'
p1160
sS'f_cpu'
p1161
S'16000000L'
p1162
sS'vid'
p1163
S'0x2341'
p1164
sS'pid'
p1165
S'0x8039'
p1166
sS'variant'
p1167
S'robot_motor'
p1168
sS'mcu'
p1169
S'atmega32u4'
p1170
ssS'name'
p1171
S'Arduino Robot Motor'
p1172
sS'upload'
p1173
(dp1174
S'protocol'
p1175
S'avr109'
p1176
sS'maximum_size'
p1177
S'28672'
p1178
sS'speed'
p1179
S'57600'
p1180
sS'disable_flushing'
p1181
S'true'
p1182
ssaatp1183
Rp1184
(dp1185
S'default'
p1186
S'uno'
p1187
sbtp1188
a(S'used_libs'
p1189
(lp1190
S'/usr/share/arduino/hardware/arduino/cores/arduino'
p1191
atp1192
a(S'make'
p1193
S'/usr/bin/make'
p1194
tp1195
a(S'build_dir'
p1196
S'.build/mega2560'
p1197
tp1198
a(S'cxx'
p1199
S'/usr/share/arduino/hardware/tools/avr/bin/avr-g++'
p1200
tp1201
a(S'cflags'
p1202
g2
(g3
g4
(lp1203
tp1204
Rp1205
tp1206
a(S'cxxflags'
p1207
g2
(g3
g4
(lp1208
S'-fno-exceptions'
p1209
atp1210
Rp1211
tp1212
a(S'arduino_variants_dir'
p1213
S'/usr/share/arduino/hardware/arduino/variants'
p1214
tp1215
a(S'stty'
p1216
S'/usr/bin/stty'
p1217
tp1218
a(S'version.txt'
p1219
S'/usr/share/arduino/lib/version.txt'
p1220
tp1221
a(S'arduino_core_dir'
p1222
g1191
tp1223
a(S'boards.txt'
p1224
(lp1225
S'/usr/share/arduino/hardware/arduino/boards.txt'
p1226
atp1227
a(S'avrdude.conf'
p1228
S'/usr/share/arduino/hardware/tools/avrdude.conf'
p1229
tp1230
a(S'deps'
p1231
g2
(g3
g4
(lp1232
S'.build/mega2560/src/dependencies.d'
p1233
aS'.build/mega2560/arduino/dependencies.d'
p1234
atp1235
Rp1236
tp1237
a.